target datalayout = "e-m:e-p270:32:32-p271:32:32-p272:64:64-i64:64-i128:128-f80:128-n8:16:32:64-S128"
target triple = "x86_64-pc-linux-gnu"

%class.anon.123 = type { i8 }
%struct.UserData = type { i8, i8, i8, i8, i8, i8, i8, i8, i8, i8 }

@.str.88 = private unnamed_addr constant [3 x i8] c"rb\00", align 1
@.str.265 = private unnamed_addr constant [4 x i8] c"r+b\00", align 1
@.str.266 = private unnamed_addr constant [4 x i8] c"w+b\00", align 1

; Function Attrs: inlinehint mustprogress uwtable
define internal noundef ptr @"_ZZN12_GLOBAL__N_124networking_file_api_Test8TestBodyEvENK3$_0clEP6pj_ctxPKc16PROJ_OPEN_ACCESSPv"(ptr noundef nonnull align 1 dereferenceable(1) %0, ptr noundef %1, ptr noundef %2, i32 noundef %3, ptr noundef %4) #8 align 2 {
  %6 = alloca ptr, align 8
  %7 = alloca ptr, align 8
  %8 = alloca ptr, align 8
  %9 = alloca i32, align 4
  %10 = alloca ptr, align 8
  store ptr %0, ptr %6, align 8, !tbaa !24
  store ptr %1, ptr %7, align 8, !tbaa !109
  store ptr %2, ptr %8, align 8, !tbaa !13
  store i32 %3, ptr %9, align 4, !tbaa !631
  store ptr %4, ptr %10, align 8, !tbaa !24
  %11 = load ptr, ptr %10, align 8, !tbaa !24
  %12 = getelementptr inbounds nuw %struct.UserData, ptr %11, i32 0, i32 0
  store i8 1, ptr %12, align 1, !tbaa !622
  %13 = load ptr, ptr %8, align 8, !tbaa !13
  %14 = load i32, ptr %9, align 4, !tbaa !631
  %15 = icmp eq i32 %14, 0
  br i1 %15, label %16, label %17

16:                                               ; preds = %5
  br label %25

17:                                               ; preds = %5
  %18 = load i32, ptr %9, align 4, !tbaa !631
  %19 = icmp eq i32 %18, 1
  br i1 %19, label %20, label %21

20:                                               ; preds = %17
  br label %22

21:                                               ; preds = %17
  br label %22

22:                                               ; preds = %21, %20
  %23 = phi ptr [ @.str.265, %20 ], [ @.str.266, %21 ]
  %24 = getelementptr inbounds [4 x i8], ptr %23, i64 0, i64 0
  br label %25

25:                                               ; preds = %22, %16
  %26 = phi ptr [ @.str.88, %16 ], [ %24, %22 ]
  %27 = call noalias ptr @fopen(ptr noundef %13, ptr noundef %26)
  ret ptr %27
}

; Function Attrs: inlinehint mustprogress uwtable
define internal noundef ptr @"_ZZN12_GLOBAL__N_124networking_file_api_Test8TestBodyEvEN3$_08__invokeEP6pj_ctxPKc16PROJ_OPEN_ACCESSPv"(ptr noundef %0, ptr noundef %1, i32 noundef %2, ptr noundef %3) #8 align 2 {
  %5 = alloca ptr, align 8
  %6 = alloca ptr, align 8
  %7 = alloca i32, align 4
  %8 = alloca ptr, align 8
  %9 = alloca %class.anon.123, align 1
  store ptr %0, ptr %5, align 8, !tbaa !109
  store ptr %1, ptr %6, align 8, !tbaa !13
  store i32 %2, ptr %7, align 4, !tbaa !631
  store ptr %3, ptr %8, align 8, !tbaa !24
  %10 = load ptr, ptr %5, align 8, !tbaa !109
  %11 = load ptr, ptr %6, align 8, !tbaa !13
  %12 = load i32, ptr %7, align 4, !tbaa !631
  %13 = load ptr, ptr %8, align 8, !tbaa !24
  %14 = call noundef ptr @"_ZZN12_GLOBAL__N_124networking_file_api_Test8TestBodyEvENK3$_0clEP6pj_ctxPKc16PROJ_OPEN_ACCESSPv"(ptr noundef nonnull align 1 dereferenceable(1) %9, ptr noundef %10, ptr noundef %11, i32 noundef %12, ptr noundef %13)
  ret ptr %14
}