; Function Attrs: inlinehint mustprogress nofree nounwind uwtable
define internal noalias noundef ptr @"_ZZN12_GLOBAL__N_124networking_file_api_Test8TestBodyEvEN3$_08__invokeEP6pj_ctxPKc16PROJ_OPEN_ACCESSPv"(ptr readnone captures(none) %0, ptr noundef readonly captures(none) %1, i32 noundef %2, ptr noundef writeonly captures(none) initializes((0, 1)) %3) #22 align 2 {
  store i8 1, ptr %3, align 1, !tbaa !727
  %5 = icmp eq i32 %2, 0
  %6 = icmp eq i32 %2, 1
  %.str.265..str.266.i = select i1 %6, ptr @.str.265, ptr @.str.266
  %7 = select i1 %5, ptr @.str.88, ptr %.str.265..str.266.i
  %8 = tail call noalias noundef ptr @fopen(ptr noundef readonly %1, ptr noundef nonnull %7)
  ret ptr %8
}